; Function Attrs: nounwind uwtable
define dso_local range(i64 -2147483648, 2147483648) i64 @pg_event_trigger_table_rewrite_reason(ptr noundef readnone captures(none) %0) local_unnamed_addr #0 {
  %2 = load ptr, ptr @currentEventTriggerState, align 8
  %.not = icmp eq ptr %2, null
  br i1 %.not, label %7, label %3

3:                                                ; preds = %1
  %4 = getelementptr inbounds nuw i8, ptr %2, i64 24
  %5 = load i32, ptr %4, align 8
  %6 = icmp eq i32 %5, 0
  br i1 %6, label %7, label %11

7:                                                ; preds = %3, %1
  %8 = tail call zeroext i1 @errstart_cold(i32 noundef 21, ptr noundef null) #17
  tail call void @llvm.assume(i1 %8)
  %9 = tail call i32 @errcode(i32 noundef 50463299) #16
  %10 = tail call i32 (ptr, ...) @errmsg(ptr noundef nonnull @.str.22, ptr noundef nonnull @.str.24) #16
  tail call void @errfinish(ptr noundef nonnull @.str.2, i32 noundef 1519, ptr noundef nonnull @__func__.pg_event_trigger_table_rewrite_reason) #16
  unreachable

11:                                               ; preds = %3
  %12 = sext i32 %5 to i64
  ret i64 %12
}